; Function Attrs: nounwind uwtable
define dso_local i64 @archive_seek_data(ptr noundef %0, i64 noundef %1, i32 noundef %2) local_unnamed_addr #0 {
  %4 = tail call i32 @__archive_check_magic(ptr noundef %0, i32 noundef 14594245, i32 noundef 4, ptr noundef nonnull @.str.17) #15
  %.not = icmp eq i32 %4, -30
  br i1 %.not, label %14, label %5

5:                                                ; preds = %3
  %6 = getelementptr inbounds nuw i8, ptr %0, i64 2072
  %7 = load ptr, ptr %6, align 8, !tbaa !73
  %8 = getelementptr inbounds nuw i8, ptr %7, i64 56
  %9 = load ptr, ptr %8, align 8, !tbaa !97
  %10 = icmp eq ptr %9, null
  br i1 %10, label %11, label %12

11:                                               ; preds = %5
  tail call void (ptr, i32, ptr, ...) @archive_set_error(ptr noundef nonnull %0, i32 noundef 22, ptr noundef nonnull @.str.18) #15
  br label %14

12:                                               ; preds = %5
  %13 = tail call i64 %9(ptr noundef nonnull %0, i64 noundef %1, i32 noundef %2) #15
  br label %14

14:                                               ; preds = %3, %12, %11
  %.1 = phi i64 [ -30, %11 ], [ %13, %12 ], [ -30, %3 ]
  ret i64 %.1
}